Certificate:
    Data:
        Version: 1 (0x0)
        Serial Number:
            0d:18:7e:a9:9b:29:2c:3e:80:aa:55:80:d4:9c:88:8b
    Signature Algorithm: ecdsa-with-SHA256
        Issuer: O=SharpLab., CN=spring-security-webauthn test root CA
        Validity
            Not Before: Sep 22 03:18:29 2017 GMT
            Not After : Aug 29 03:18:29 2117 GMT
        Subject: O=SharpLab., CN=spring-security-webauthn test root CA
        Subject Public Key Info:
            Public Key Algorithm: id-ecPublicKey
                Public-Key: (256 bit)
                pub: 
                    04:cd:77:2e:b9:c5:ba:54:35:e1:33:41:ca:b5:0a:
                    01:7a:c8:6a:46:c3:c7:94:0f:7f:94:76:5b:f9:ca:
                    38:eb:68:2d:ba:0f:e6:55:89:4a:98:28:fa:c1:3a:
                    75:8d:17:19:39:17:bc:e9:1e:56:65:46:8c:33:41:
                    40:84:dd:ff:22
                ASN1 OID: prime256v1
                NIST CURVE: P-256
    Signature Algorithm: ecdsa-with-SHA256
         30:45:02:20:36:9e:79:a0:04:ea:80:df:32:86:4d:c2:01:4b:
         01:cb:09:7a:99:1a:a4:22:2b:79:9a:c7:2d:59:dc:f2:35:9f:
         02:21:00:a5:96:b3:76:e2:2e:bc:50:e9:e6:4d:78:61:a8:87:
         25:56:46:b1:bb:84:6d:0f:ea:b7:fc:f3:8e:de:8a:a2:e2
-----BEGIN CERTIFICATE-----
MIIBgTCCAScCEA0YfqmbKSw+gKpVgNSciIswCgYIKoZIzj0EAwIwRDESMBAGA1UE
CgwJU2hhcnBMYWIuMS4wLAYDVQQDDCVzcHJpbmctc2VjdXJpdHktd2ViYXV0aG4g
dGVzdCByb290IENBMCAXDTE3MDkyMjAzMTgyOVoYDzIxMTcwODI5MDMxODI5WjBE
MRIwEAYDVQQKDAlTaGFycExhYi4xLjAsBgNVBAMMJXNwcmluZy1zZWN1cml0eS13
ZWJhdXRobiB0ZXN0IHJvb3QgQ0EwWTATBgcqhkjOPQIBBggqhkjOPQMBBwNCAATN
dy65xbpUNeEzQcq1CgF6yGpGw8eUD3+Udlv5yjjraC26D+ZViUqYKPrBOnWNFxk5
F7zpHlZlRowzQUCE3f8iMAoGCCqGSM49BAMCA0gAMEUCIDaeeaAE6oDfMoZNwgFL
AcsJepkapCIreZrHLVnc8jWfAiEApZazduIuvFDp5k14YaiHJVZGsbuEbQ/qt/zz
jt6KouI=
-----END CERTIFICATE-----
